target datalayout = "e-m:e-p270:32:32-p271:32:32-p272:64:64-i64:64-i128:128-f80:128-n8:16:32:64-S128"
target triple = "x86_64-pc-linux-gnu"

; Function Attrs: nounwind uwtable
define void @rgb24to32(ptr noundef %0, ptr noundef %1, i32 noundef %2) #0 {
  %4 = alloca ptr, align 8
  %5 = alloca ptr, align 8
  %6 = alloca i32, align 4
  %7 = alloca i32, align 4
  store ptr %0, ptr %4, align 8, !tbaa !4
  store ptr %1, ptr %5, align 8, !tbaa !4
  store i32 %2, ptr %6, align 4, !tbaa !9
  call void @llvm.lifetime.start.p0(i64 4, ptr %7) #5
  store i32 0, ptr %7, align 4, !tbaa !9
  br label %8

8:                                                ; preds = %59, %3
  %9 = load i32, ptr %7, align 4, !tbaa !9
  %10 = mul nsw i32 3, %9
  %11 = load i32, ptr %6, align 4, !tbaa !9
  %12 = icmp slt i32 %10, %11
  br i1 %12, label %13, label %62

13:                                               ; preds = %8
  %14 = load ptr, ptr %4, align 8, !tbaa !4
  %15 = load i32, ptr %7, align 4, !tbaa !9
  %16 = mul nsw i32 3, %15
  %17 = add nsw i32 %16, 2
  %18 = sext i32 %17 to i64
  %19 = getelementptr inbounds i8, ptr %14, i64 %18
  %20 = load i8, ptr %19, align 1, !tbaa !13
  %21 = load ptr, ptr %5, align 8, !tbaa !4
  %22 = load i32, ptr %7, align 4, !tbaa !9
  %23 = mul nsw i32 4, %22
  %24 = add nsw i32 %23, 0
  %25 = sext i32 %24 to i64
  %26 = getelementptr inbounds i8, ptr %21, i64 %25
  store i8 %20, ptr %26, align 1, !tbaa !13
  %27 = load ptr, ptr %4, align 8, !tbaa !4
  %28 = load i32, ptr %7, align 4, !tbaa !9
  %29 = mul nsw i32 3, %28
  %30 = add nsw i32 %29, 1
  %31 = sext i32 %30 to i64
  %32 = getelementptr inbounds i8, ptr %27, i64 %31
  %33 = load i8, ptr %32, align 1, !tbaa !13
  %34 = load ptr, ptr %5, align 8, !tbaa !4
  %35 = load i32, ptr %7, align 4, !tbaa !9
  %36 = mul nsw i32 4, %35
  %37 = add nsw i32 %36, 1
  %38 = sext i32 %37 to i64
  %39 = getelementptr inbounds i8, ptr %34, i64 %38
  store i8 %33, ptr %39, align 1, !tbaa !13
  %40 = load ptr, ptr %4, align 8, !tbaa !4
  %41 = load i32, ptr %7, align 4, !tbaa !9
  %42 = mul nsw i32 3, %41
  %43 = add nsw i32 %42, 0
  %44 = sext i32 %43 to i64
  %45 = getelementptr inbounds i8, ptr %40, i64 %44
  %46 = load i8, ptr %45, align 1, !tbaa !13
  %47 = load ptr, ptr %5, align 8, !tbaa !4
  %48 = load i32, ptr %7, align 4, !tbaa !9
  %49 = mul nsw i32 4, %48
  %50 = add nsw i32 %49, 2
  %51 = sext i32 %50 to i64
  %52 = getelementptr inbounds i8, ptr %47, i64 %51
  store i8 %46, ptr %52, align 1, !tbaa !13
  %53 = load ptr, ptr %5, align 8, !tbaa !4
  %54 = load i32, ptr %7, align 4, !tbaa !9
  %55 = mul nsw i32 4, %54
  %56 = add nsw i32 %55, 3
  %57 = sext i32 %56 to i64
  %58 = getelementptr inbounds i8, ptr %53, i64 %57
  store i8 -1, ptr %58, align 1, !tbaa !13
  br label %59

59:                                               ; preds = %13
  %60 = load i32, ptr %7, align 4, !tbaa !9
  %61 = add nsw i32 %60, 1
  store i32 %61, ptr %7, align 4, !tbaa !9
  br label %8, !llvm.loop !19

62:                                               ; preds = %8
  call void @llvm.lifetime.end.p0(i64 4, ptr %7) #5
  ret void
}