; Function Attrs: nofree norecurse nosync nounwind memory(argmem: readwrite) uwtable
define void @rgb24to32(ptr noundef readonly captures(none) %0, ptr noundef writeonly captures(none) %1, i32 noundef %2) local_unnamed_addr #0 {
  %4 = icmp sgt i32 %2, 0
  br i1 %4, label %.lr.ph.preheader, label %._crit_edge

.lr.ph.preheader:                                 ; preds = %3
  %5 = add nsw i32 %2, -1
  %6 = udiv i32 %5, 3
  %7 = add nuw nsw i32 %6, 1
  %wide.trip.count = zext nneg i32 %7 to i64
  br label %.lr.ph

.lr.ph:                                           ; preds = %.lr.ph.preheader, %.lr.ph
  %indvars.iv18 = phi i64 [ 0, %.lr.ph.preheader ], [ %indvars.iv.next19, %.lr.ph ]
  %indvars.iv = phi i64 [ 0, %.lr.ph.preheader ], [ %indvars.iv.next, %.lr.ph ]
  %8 = getelementptr inbounds nuw i8, ptr %0, i64 %indvars.iv
  %9 = getelementptr inbounds nuw i8, ptr %8, i64 2
  %10 = load i8, ptr %9, align 1, !tbaa !8
  %11 = shl nsw i64 %indvars.iv18, 2
  %12 = getelementptr inbounds nuw i8, ptr %1, i64 %11
  store i8 %10, ptr %12, align 1, !tbaa !8
  %13 = getelementptr inbounds nuw i8, ptr %8, i64 1
  %14 = load i8, ptr %13, align 1, !tbaa !8
  %15 = getelementptr inbounds nuw i8, ptr %12, i64 1
  store i8 %14, ptr %15, align 1, !tbaa !8
  %16 = load i8, ptr %8, align 1, !tbaa !8
  %17 = getelementptr inbounds nuw i8, ptr %12, i64 2
  store i8 %16, ptr %17, align 1, !tbaa !8
  %18 = getelementptr inbounds nuw i8, ptr %12, i64 3
  store i8 -1, ptr %18, align 1, !tbaa !8
  %indvars.iv.next19 = add nuw nsw i64 %indvars.iv18, 1
  %indvars.iv.next = add nuw nsw i64 %indvars.iv, 3
  %exitcond.not = icmp eq i64 %indvars.iv.next19, %wide.trip.count
  br i1 %exitcond.not, label %._crit_edge, label %.lr.ph, !llvm.loop !15

._crit_edge:                                      ; preds = %.lr.ph, %3
  ret void
}